target datalayout = "e-m:e-p270:32:32-p271:32:32-p272:64:64-i64:64-i128:128-f80:128-n8:16:32:64-S128"
target triple = "x86_64-pc-linux-gnu"

%struct.uv_loop_s = type { ptr, i32, [2 x ptr], %union.anon.1, ptr, i32, i64, i32, [2 x ptr], [2 x ptr], ptr, i32, i32, [2 x ptr], %union.pthread_mutex_t, %struct.uv_async_s, %union.pthread_rwlock_t, ptr, [2 x ptr], [2 x ptr], [2 x ptr], [2 x ptr], [2 x ptr], ptr, %struct.uv__io_s, i32, %struct.anon, i64, i64, [2 x i32], %struct.uv__io_s, %struct.uv_signal_s, i32, %struct.uv__io_s, ptr, i32 }
%union.anon.1 = type { ptr }
%union.pthread_mutex_t = type { %struct.__pthread_mutex_s }
%struct.__pthread_mutex_s = type { i32, i32, i32, i32, i32, i16, i16, %struct.__pthread_internal_list }
%struct.__pthread_internal_list = type { ptr, ptr }
%struct.uv_async_s = type { ptr, ptr, i32, ptr, [2 x ptr], %union.anon.2, ptr, i32, ptr, [2 x ptr], i32 }
%union.anon.2 = type { [4 x ptr] }
%union.pthread_rwlock_t = type { %struct.__pthread_rwlock_arch_t }
%struct.__pthread_rwlock_arch_t = type { i32, i32, i32, i32, i32, i32, i32, i32, i8, [7 x i8], i64, i32 }
%struct.anon = type { ptr, i32 }
%struct.uv_signal_s = type { ptr, ptr, i32, ptr, [2 x ptr], %union.anon.3, ptr, i32, ptr, i32, %struct.anon.4, i32, i32 }
%union.anon.3 = type { [4 x ptr] }
%struct.anon.4 = type { ptr, ptr, ptr, i32 }
%struct.uv__io_s = type { ptr, [2 x ptr], [2 x ptr], i32, i32, i32 }
%struct.uv_stream_s = type { ptr, ptr, i32, ptr, [2 x ptr], %union.anon, ptr, i32, i64, ptr, ptr, ptr, ptr, %struct.uv__io_s, [2 x ptr], [2 x ptr], ptr, i32, i32, ptr }
%union.anon = type { [4 x ptr] }
%struct.uv_buf_t = type { ptr, i64 }
%struct.uv_write_s = type { ptr, i32, [6 x ptr], ptr, ptr, ptr, [2 x ptr], i32, ptr, i32, i32, [4 x %struct.uv_buf_t] }

; Function Attrs: nounwind uwtable
define internal i64 @uv__write_req_size(ptr noundef %0) #0 {
  %2 = alloca ptr, align 8
  %3 = alloca i64, align 8
  store ptr %0, ptr %2, align 8
  %4 = load ptr, ptr %2, align 8
  %5 = getelementptr inbounds %struct.uv_write_s, ptr %4, i32 0, i32 8
  %6 = load ptr, ptr %5, align 8
  %7 = load ptr, ptr %2, align 8
  %8 = getelementptr inbounds %struct.uv_write_s, ptr %7, i32 0, i32 7
  %9 = load i32, ptr %8, align 8
  %10 = zext i32 %9 to i64
  %11 = getelementptr inbounds %struct.uv_buf_t, ptr %6, i64 %10
  %12 = load ptr, ptr %2, align 8
  %13 = getelementptr inbounds %struct.uv_write_s, ptr %12, i32 0, i32 9
  %14 = load i32, ptr %13, align 8
  %15 = load ptr, ptr %2, align 8
  %16 = getelementptr inbounds %struct.uv_write_s, ptr %15, i32 0, i32 7
  %17 = load i32, ptr %16, align 8
  %18 = sub i32 %14, %17
  %19 = call i64 @uv__count_bufs(ptr noundef %11, i32 noundef %18)
  store i64 %19, ptr %3, align 8
  %20 = load i64, ptr %3, align 8
  ret i64 %20
}

; Function Attrs: nounwind uwtable
define internal void @uv__write_callbacks(ptr noundef %0) #0 {
  %2 = alloca ptr, align 8
  %3 = alloca ptr, align 8
  %4 = alloca ptr, align 8
  %5 = alloca [2 x ptr], align 16
  %6 = alloca ptr, align 8
  store ptr %0, ptr %2, align 8
  %7 = load ptr, ptr %2, align 8
  %8 = getelementptr inbounds %struct.uv_stream_s, ptr %7, i32 0, i32 15
  %9 = load ptr, ptr %2, align 8
  %10 = getelementptr inbounds %struct.uv_stream_s, ptr %9, i32 0, i32 15
  %11 = getelementptr inbounds [2 x ptr], ptr %10, i64 0, i64 0
  %12 = load ptr, ptr %11, align 8
  %13 = icmp eq ptr %8, %12
  br i1 %13, label %14, label %15

14:                                               ; preds = %1
  br label %136

15:                                               ; preds = %1
  br label %16

16:                                               ; preds = %15
  %17 = load ptr, ptr %2, align 8
  %18 = getelementptr inbounds %struct.uv_stream_s, ptr %17, i32 0, i32 15
  %19 = load ptr, ptr %2, align 8
  %20 = getelementptr inbounds %struct.uv_stream_s, ptr %19, i32 0, i32 15
  %21 = getelementptr inbounds [2 x ptr], ptr %20, i64 0, i64 0
  %22 = load ptr, ptr %21, align 8
  %23 = icmp eq ptr %18, %22
  br i1 %23, label %24, label %29

24:                                               ; preds = %16
  br label %25

25:                                               ; preds = %24
  %26 = getelementptr inbounds [2 x ptr], ptr %5, i64 0, i64 0
  store ptr %5, ptr %26, align 16
  %27 = getelementptr inbounds [2 x ptr], ptr %5, i64 0, i64 1
  store ptr %5, ptr %27, align 8
  br label %28

28:                                               ; preds = %25
  br label %61

29:                                               ; preds = %16
  %30 = load ptr, ptr %2, align 8
  %31 = getelementptr inbounds %struct.uv_stream_s, ptr %30, i32 0, i32 15
  %32 = getelementptr inbounds [2 x ptr], ptr %31, i64 0, i64 0
  %33 = load ptr, ptr %32, align 8
  store ptr %33, ptr %6, align 8
  br label %34

34:                                               ; preds = %29
  %35 = load ptr, ptr %2, align 8
  %36 = getelementptr inbounds %struct.uv_stream_s, ptr %35, i32 0, i32 15
  %37 = getelementptr inbounds [2 x ptr], ptr %36, i64 0, i64 1
  %38 = load ptr, ptr %37, align 8
  %39 = getelementptr inbounds [2 x ptr], ptr %5, i64 0, i64 1
  store ptr %38, ptr %39, align 8
  %40 = getelementptr inbounds [2 x ptr], ptr %5, i64 0, i64 1
  %41 = load ptr, ptr %40, align 8
  %42 = getelementptr inbounds [2 x ptr], ptr %41, i64 0, i64 0
  store ptr %5, ptr %42, align 8
  %43 = load ptr, ptr %6, align 8
  %44 = getelementptr inbounds [2 x ptr], ptr %5, i64 0, i64 0
  store ptr %43, ptr %44, align 16
  %45 = load ptr, ptr %6, align 8
  %46 = getelementptr inbounds [2 x ptr], ptr %45, i64 0, i64 1
  %47 = load ptr, ptr %46, align 8
  %48 = load ptr, ptr %2, align 8
  %49 = getelementptr inbounds %struct.uv_stream_s, ptr %48, i32 0, i32 15
  %50 = getelementptr inbounds [2 x ptr], ptr %49, i64 0, i64 1
  store ptr %47, ptr %50, align 8
  %51 = load ptr, ptr %2, align 8
  %52 = getelementptr inbounds %struct.uv_stream_s, ptr %51, i32 0, i32 15
  %53 = load ptr, ptr %2, align 8
  %54 = getelementptr inbounds %struct.uv_stream_s, ptr %53, i32 0, i32 15
  %55 = getelementptr inbounds [2 x ptr], ptr %54, i64 0, i64 1
  %56 = load ptr, ptr %55, align 8
  %57 = getelementptr inbounds [2 x ptr], ptr %56, i64 0, i64 0
  store ptr %52, ptr %57, align 8
  %58 = load ptr, ptr %6, align 8
  %59 = getelementptr inbounds [2 x ptr], ptr %58, i64 0, i64 1
  store ptr %5, ptr %59, align 8
  br label %60

60:                                               ; preds = %34
  br label %61

61:                                               ; preds = %60, %28
  br label %62

62:                                               ; preds = %61
  br label %63

63:                                               ; preds = %135, %62
  %64 = getelementptr inbounds [2 x ptr], ptr %5, i64 0, i64 0
  %65 = load ptr, ptr %64, align 16
  %66 = icmp eq ptr %5, %65
  %67 = xor i1 %66, true
  br i1 %67, label %68, label %136

68:                                               ; preds = %63
  %69 = getelementptr inbounds [2 x ptr], ptr %5, i64 0, i64 0
  %70 = load ptr, ptr %69, align 16
  store ptr %70, ptr %4, align 8
  %71 = load ptr, ptr %4, align 8
  %72 = getelementptr inbounds i8, ptr %71, i64 -88
  store ptr %72, ptr %3, align 8
  br label %73

73:                                               ; preds = %68
  %74 = load ptr, ptr %4, align 8
  %75 = getelementptr inbounds [2 x ptr], ptr %74, i64 0, i64 0
  %76 = load ptr, ptr %75, align 8
  %77 = load ptr, ptr %4, align 8
  %78 = getelementptr inbounds [2 x ptr], ptr %77, i64 0, i64 1
  %79 = load ptr, ptr %78, align 8
  %80 = getelementptr inbounds [2 x ptr], ptr %79, i64 0, i64 0
  store ptr %76, ptr %80, align 8
  %81 = load ptr, ptr %4, align 8
  %82 = getelementptr inbounds [2 x ptr], ptr %81, i64 0, i64 1
  %83 = load ptr, ptr %82, align 8
  %84 = load ptr, ptr %4, align 8
  %85 = getelementptr inbounds [2 x ptr], ptr %84, i64 0, i64 0
  %86 = load ptr, ptr %85, align 8
  %87 = getelementptr inbounds [2 x ptr], ptr %86, i64 0, i64 1
  store ptr %83, ptr %87, align 8
  br label %88

88:                                               ; preds = %73
  br label %89

89:                                               ; preds = %88
  %90 = load ptr, ptr %2, align 8
  %91 = getelementptr inbounds %struct.uv_stream_s, ptr %90, i32 0, i32 1
  %92 = load ptr, ptr %91, align 8
  %93 = getelementptr inbounds %struct.uv_loop_s, ptr %92, i32 0, i32 3
  %94 = load i32, ptr %93, align 8
  %95 = add i32 %94, -1
  store i32 %95, ptr %93, align 8
  br label %96

96:                                               ; preds = %89
  %97 = load ptr, ptr %3, align 8
  %98 = getelementptr inbounds %struct.uv_write_s, ptr %97, i32 0, i32 8
  %99 = load ptr, ptr %98, align 8
  %100 = icmp ne ptr %99, null
  br i1 %100, label %101, label %122

101:                                              ; preds = %96
  %102 = load ptr, ptr %3, align 8
  %103 = call i64 @uv__write_req_size(ptr noundef %102)
  %104 = load ptr, ptr %2, align 8
  %105 = getelementptr inbounds %struct.uv_stream_s, ptr %104, i32 0, i32 8
  %106 = load i64, ptr %105, align 8
  %107 = sub i64 %106, %103
  store i64 %107, ptr %105, align 8
  %108 = load ptr, ptr %3, align 8
  %109 = getelementptr inbounds %struct.uv_write_s, ptr %108, i32 0, i32 8
  %110 = load ptr, ptr %109, align 8
  %111 = load ptr, ptr %3, align 8
  %112 = getelementptr inbounds %struct.uv_write_s, ptr %111, i32 0, i32 11
  %113 = getelementptr inbounds [4 x %struct.uv_buf_t], ptr %112, i64 0, i64 0
  %114 = icmp ne ptr %110, %113
  br i1 %114, label %115, label %119

115:                                              ; preds = %101
  %116 = load ptr, ptr %3, align 8
  %117 = getelementptr inbounds %struct.uv_write_s, ptr %116, i32 0, i32 8
  %118 = load ptr, ptr %117, align 8
  call void @uv__free(ptr noundef %118)
  br label %119

119:                                              ; preds = %115, %101
  %120 = load ptr, ptr %3, align 8
  %121 = getelementptr inbounds %struct.uv_write_s, ptr %120, i32 0, i32 8
  store ptr null, ptr %121, align 8
  br label %122

122:                                              ; preds = %119, %96
  %123 = load ptr, ptr %3, align 8
  %124 = getelementptr inbounds %struct.uv_write_s, ptr %123, i32 0, i32 3
  %125 = load ptr, ptr %124, align 8
  %126 = icmp ne ptr %125, null
  br i1 %126, label %127, label %135

127:                                              ; preds = %122
  %128 = load ptr, ptr %3, align 8
  %129 = getelementptr inbounds %struct.uv_write_s, ptr %128, i32 0, i32 3
  %130 = load ptr, ptr %129, align 8
  %131 = load ptr, ptr %3, align 8
  %132 = load ptr, ptr %3, align 8
  %133 = getelementptr inbounds %struct.uv_write_s, ptr %132, i32 0, i32 10
  %134 = load i32, ptr %133, align 4
  call void %130(ptr noundef %131, i32 noundef %134)
  br label %135

135:                                              ; preds = %127, %122
  br label %63, !llvm.loop !7

136:                                              ; preds = %63, %14
  ret void
}