; Function Attrs: nounwind uwtable
define internal fastcc void @uv__write_callbacks(ptr noundef %0) unnamed_addr #0 {
  %2 = alloca [2 x ptr], align 16
  %3 = getelementptr inbounds nuw i8, ptr %0, i64 208
  %4 = load ptr, ptr %3, align 8
  %5 = icmp eq ptr %3, %4
  br i1 %5, label %.loopexit, label %6

6:                                                ; preds = %1
  %7 = getelementptr inbounds nuw i8, ptr %0, i64 216
  %8 = load ptr, ptr %7, align 8
  %9 = getelementptr inbounds nuw i8, ptr %2, i64 8
  store ptr %8, ptr %9, align 8
  store ptr %2, ptr %8, align 8
  store ptr %4, ptr %2, align 16
  %10 = getelementptr inbounds nuw i8, ptr %4, i64 8
  %11 = load ptr, ptr %10, align 8
  store ptr %11, ptr %7, align 8
  store ptr %3, ptr %11, align 8
  store ptr %2, ptr %10, align 8
  %12 = load ptr, ptr %2, align 16
  %.not35 = icmp eq ptr %2, %12
  br i1 %.not35, label %.loopexit, label %.lr.ph

.lr.ph:                                           ; preds = %6
  %13 = getelementptr inbounds nuw i8, ptr %0, i64 8
  %14 = getelementptr inbounds nuw i8, ptr %0, i64 96
  br label %15

15:                                               ; preds = %.lr.ph, %50
  %16 = phi ptr [ %12, %.lr.ph ], [ %51, %50 ]
  %17 = getelementptr inbounds i8, ptr %16, i64 -88
  %18 = load ptr, ptr %16, align 8
  %19 = getelementptr inbounds nuw i8, ptr %16, i64 8
  %20 = load ptr, ptr %19, align 8
  store ptr %18, ptr %20, align 8
  %21 = load ptr, ptr %19, align 8
  %22 = getelementptr inbounds nuw i8, ptr %18, i64 8
  store ptr %21, ptr %22, align 8
  %23 = load ptr, ptr %13, align 8
  %24 = getelementptr inbounds nuw i8, ptr %23, i64 32
  %25 = load i32, ptr %24, align 8
  %26 = add i32 %25, -1
  store i32 %26, ptr %24, align 8
  %27 = getelementptr inbounds nuw i8, ptr %16, i64 24
  %28 = load ptr, ptr %27, align 8
  %.not32 = icmp eq ptr %28, null
  br i1 %.not32, label %44, label %29

29:                                               ; preds = %15
  %30 = getelementptr inbounds nuw i8, ptr %16, i64 16
  %31 = load i32, ptr %30, align 8
  %32 = zext i32 %31 to i64
  %33 = getelementptr inbounds nuw %struct.uv_buf_t, ptr %28, i64 %32
  %34 = getelementptr inbounds nuw i8, ptr %16, i64 32
  %35 = load i32, ptr %34, align 8
  %36 = sub i32 %35, %31
  %37 = call i64 @uv__count_bufs(ptr noundef nonnull %33, i32 noundef %36) #12
  %38 = load i64, ptr %14, align 8
  %39 = sub i64 %38, %37
  store i64 %39, ptr %14, align 8
  %40 = load ptr, ptr %27, align 8
  %41 = getelementptr inbounds nuw i8, ptr %16, i64 40
  %.not33 = icmp eq ptr %40, %41
  br i1 %.not33, label %43, label %42

42:                                               ; preds = %29
  call void @uv__free(ptr noundef %40) #12
  br label %43

43:                                               ; preds = %42, %29
  store ptr null, ptr %27, align 8
  br label %44

44:                                               ; preds = %43, %15
  %45 = getelementptr inbounds i8, ptr %16, i64 -24
  %46 = load ptr, ptr %45, align 8
  %.not34 = icmp eq ptr %46, null
  br i1 %.not34, label %50, label %47

47:                                               ; preds = %44
  %48 = getelementptr inbounds nuw i8, ptr %16, i64 36
  %49 = load i32, ptr %48, align 4
  call void %46(ptr noundef nonnull %17, i32 noundef %49) #12
  br label %50

50:                                               ; preds = %47, %44
  %51 = load ptr, ptr %2, align 16
  %.not = icmp eq ptr %2, %51
  br i1 %.not, label %.loopexit, label %15, !llvm.loop !14

.loopexit:                                        ; preds = %50, %6, %1
  ret void
}